target datalayout = "e-m:e-p270:32:32-p271:32:32-p272:64:64-i64:64-i128:128-f80:128-n8:16:32:64-S128"
target triple = "x86_64-pc-linux-gnu"

%struct.select_nodeinfo = type { i16, i16, i64, ptr, double }

@.str.12 = private unnamed_addr constant [50 x i8] c"select_p_select_nodeinfo_free: nodeinfo magic bad\00", align 1

; Function Attrs: nounwind uwtable
define dso_local i32 @select_p_select_nodeinfo_free(ptr noundef %0) #0 {
  %2 = alloca i32, align 4
  %3 = alloca ptr, align 8
  store ptr %0, ptr %3, align 8
  %4 = load ptr, ptr %3, align 8
  %5 = icmp ne ptr %4, null
  br i1 %5, label %6, label %19

6:                                                ; preds = %1
  %7 = load ptr, ptr %3, align 8
  %8 = getelementptr inbounds nuw %struct.select_nodeinfo, ptr %7, i32 0, i32 0
  %9 = load i16, ptr %8, align 8
  %10 = zext i16 %9 to i32
  %11 = icmp ne i32 %10, 33453
  br i1 %11, label %12, label %14

12:                                               ; preds = %6
  %13 = call i32 (ptr, ...) @slurm_error(ptr noundef @.str.12)
  store i32 22, ptr %2, align 4
  br label %20

14:                                               ; preds = %6
  %15 = load ptr, ptr %3, align 8
  %16 = getelementptr inbounds nuw %struct.select_nodeinfo, ptr %15, i32 0, i32 0
  store i16 0, ptr %16, align 8
  %17 = load ptr, ptr %3, align 8
  %18 = getelementptr inbounds nuw %struct.select_nodeinfo, ptr %17, i32 0, i32 3
  call void @slurm_xfree(ptr noundef %18)
  call void @slurm_xfree(ptr noundef %3)
  br label %19

19:                                               ; preds = %14, %1
  store i32 0, ptr %2, align 4
  br label %20

20:                                               ; preds = %19, %12
  %21 = load i32, ptr %2, align 4
  ret i32 %21
}