; Function Attrs: nounwind uwtable
define dso_local range(i32 0, 23) i32 @select_p_select_nodeinfo_free(ptr noundef %0) local_unnamed_addr #0 {
  %2 = alloca ptr, align 8
  store ptr %0, ptr %2, align 8
  %.not = icmp eq ptr %0, null
  br i1 %.not, label %9, label %3

3:                                                ; preds = %1
  %4 = load i16, ptr %0, align 8
  %.not2 = icmp eq i16 %4, -32083
  br i1 %.not2, label %7, label %5

5:                                                ; preds = %3
  %6 = tail call i32 (ptr, ...) @slurm_error(ptr noundef nonnull @.str.12) #11
  br label %9

7:                                                ; preds = %3
  store i16 0, ptr %0, align 8
  %8 = getelementptr inbounds nuw i8, ptr %0, i64 16
  tail call void @slurm_xfree(ptr noundef nonnull %8) #11
  call void @slurm_xfree(ptr noundef nonnull %2) #11
  br label %9

9:                                                ; preds = %1, %7, %5
  %.0 = phi i32 [ 22, %5 ], [ 0, %7 ], [ 0, %1 ]
  ret i32 %.0
}